target datalayout = "e-m:e-p270:32:32-p271:32:32-p272:64:64-i64:64-i128:128-f80:128-n8:16:32:64-S128"
target triple = "x86_64-unknown-linux-gnu"

@.str.10 = private unnamed_addr constant [10 x i8] c"<unknown>\00", align 1
@.str.36 = private unnamed_addr constant [5 x i8] c"none\00", align 1
@.str.37 = private unnamed_addr constant [5 x i8] c"data\00", align 1
@.str.38 = private unnamed_addr constant [5 x i8] c"hole\00", align 1
@.str.39 = private unnamed_addr constant [22 x i8] c"block status (32-bit)\00", align 1
@.str.40 = private unnamed_addr constant [22 x i8] c"block status (64-bit)\00", align 1
@.str.41 = private unnamed_addr constant [14 x i8] c"generic error\00", align 1
@.str.42 = private unnamed_addr constant [16 x i8] c"error at offset\00", align 1
@.str.43 = private unnamed_addr constant [16 x i8] c"<unknown error>\00", align 1

; Function Attrs: nounwind sspstrong uwtable
define dso_local ptr @nbd_reply_type_lookup(i16 noundef zeroext %type) #0 {
entry:
  %retval = alloca ptr, align 8
  %type.addr = alloca i16, align 2
  store i16 %type, ptr %type.addr, align 2
  %0 = load i16, ptr %type.addr, align 2
  %conv = zext i16 %0 to i32
  switch i32 %conv, label %sw.default [
    i32 0, label %sw.bb
    i32 1, label %sw.bb1
    i32 2, label %sw.bb2
    i32 5, label %sw.bb3
    i32 6, label %sw.bb4
    i32 32769, label %sw.bb5
    i32 32770, label %sw.bb6
  ]

sw.bb:                                            ; preds = %entry
  store ptr @.str.36, ptr %retval, align 8
  br label %return

sw.bb1:                                           ; preds = %entry
  store ptr @.str.37, ptr %retval, align 8
  br label %return

sw.bb2:                                           ; preds = %entry
  store ptr @.str.38, ptr %retval, align 8
  br label %return

sw.bb3:                                           ; preds = %entry
  store ptr @.str.39, ptr %retval, align 8
  br label %return

sw.bb4:                                           ; preds = %entry
  store ptr @.str.40, ptr %retval, align 8
  br label %return

sw.bb5:                                           ; preds = %entry
  store ptr @.str.41, ptr %retval, align 8
  br label %return

sw.bb6:                                           ; preds = %entry
  store ptr @.str.42, ptr %retval, align 8
  br label %return

sw.default:                                       ; preds = %entry
  %1 = load i16, ptr %type.addr, align 2
  %conv7 = zext i16 %1 to i32
  %and = and i32 %conv7, 32768
  %tobool = icmp ne i32 %and, 0
  br i1 %tobool, label %if.then, label %if.end

if.then:                                          ; preds = %sw.default
  store ptr @.str.43, ptr %retval, align 8
  br label %return

if.end:                                           ; preds = %sw.default
  store ptr @.str.10, ptr %retval, align 8
  br label %return

return:                                           ; preds = %if.end, %if.then, %sw.bb6, %sw.bb5, %sw.bb4, %sw.bb3, %sw.bb2, %sw.bb1, %sw.bb
  %2 = load ptr, ptr %retval, align 8
  ret ptr %2
}