; Function Attrs: mustprogress nofree norecurse nosync nounwind sspstrong willreturn memory(none) uwtable
define dso_local noundef nonnull ptr @nbd_reply_type_lookup(i16 noundef zeroext %type) local_unnamed_addr #3 {
entry:
  switch i16 %type, label %sw.default [
    i16 0, label %return
    i16 1, label %sw.bb1
    i16 2, label %sw.bb2
    i16 5, label %sw.bb3
    i16 6, label %sw.bb4
    i16 -32767, label %sw.bb5
    i16 -32766, label %sw.bb6
  ]

sw.bb1:                                           ; preds = %entry
  br label %return

sw.bb2:                                           ; preds = %entry
  br label %return

sw.bb3:                                           ; preds = %entry
  br label %return

sw.bb4:                                           ; preds = %entry
  br label %return

sw.bb5:                                           ; preds = %entry
  br label %return

sw.bb6:                                           ; preds = %entry
  br label %return

sw.default:                                       ; preds = %entry
  %tobool.not = icmp sgt i16 %type, -1
  %.str.10..str.43 = select i1 %tobool.not, ptr @.str.10, ptr @.str.43
  br label %return

return:                                           ; preds = %sw.default, %entry, %sw.bb6, %sw.bb5, %sw.bb4, %sw.bb3, %sw.bb2, %sw.bb1
  %retval.0 = phi ptr [ @.str.42, %sw.bb6 ], [ @.str.41, %sw.bb5 ], [ @.str.40, %sw.bb4 ], [ @.str.39, %sw.bb3 ], [ @.str.38, %sw.bb2 ], [ @.str.37, %sw.bb1 ], [ @.str.36, %entry ], [ %.str.10..str.43, %sw.default ]
  ret ptr %retval.0
}